(dp0
S'angle'
p1
(dp2
S'std'
p3
(lp4
sS'median'
p5
(lp6
sS'total'
p7
(lp8
sS'avg'
p9
(lp10
sS'singular'
p11
(lp12
ssS'center'
p13
(dp14
g3
(lp15
sg5
(lp16
sg7
(lp17
sg9
(lp18
sg11
(lp19
ssS'reprojection'
p20
(dp21
g3
(lp22
sg5
(lp23
sg7
(lp24
sg9
(lp25
sg11
(lp26
ssS'rodriguez'
p27
(dp28
g3
(lp29
sg5
(lp30
sg7
(lp31
sg9
(lp32
sg11
(lp33
ssS'corner'
p34
(dp35
g3
(lp36
sg5
(lp37
sg7
(lp38
sg9
(lp39
sg11
(lp40
ssS'translation'
p41
(dp42
g3
(lp43
sg5
(lp44
sg7
(lp45
sg9
(lp46
sg11
(lp47
ss.